target datalayout = "e-m:e-p270:32:32-p271:32:32-p272:64:64-i64:64-i128:128-f80:128-n8:16:32:64-S128"
target triple = "x86_64-pc-linux-gnu"

; Function Attrs: inlinehint nounwind uwtable
define internal zeroext i8 @lean_uint8_dec_eq(i8 noundef zeroext %0, i8 noundef zeroext %1) #0 {
  %3 = alloca i8, align 1
  %4 = alloca i8, align 1
  store i8 %0, ptr %3, align 1, !tbaa !8
  store i8 %1, ptr %4, align 1, !tbaa !8
  %5 = load i8, ptr %3, align 1, !tbaa !8
  %6 = zext i8 %5 to i32
  %7 = load i8, ptr %4, align 1, !tbaa !8
  %8 = zext i8 %7 to i32
  %9 = icmp eq i32 %6, %8
  %10 = zext i1 %9 to i32
  %11 = trunc i32 %10 to i8
  ret i8 %11
}

; Function Attrs: inlinehint nounwind uwtable
define internal zeroext i8 @lean_uint8_land(i8 noundef zeroext %0, i8 noundef zeroext %1) #0 {
  %3 = alloca i8, align 1
  %4 = alloca i8, align 1
  store i8 %0, ptr %3, align 1, !tbaa !8
  store i8 %1, ptr %4, align 1, !tbaa !8
  %5 = load i8, ptr %3, align 1, !tbaa !8
  %6 = zext i8 %5 to i32
  %7 = load i8, ptr %4, align 1, !tbaa !8
  %8 = zext i8 %7 to i32
  %9 = and i32 %6, %8
  %10 = trunc i32 %9 to i8
  ret i8 %10
}

; Function Attrs: nounwind uwtable
define i32 @l_Lake_hexEncodeByte(i8 noundef zeroext %0) #2 {
  %2 = alloca i32, align 4
  %3 = alloca i8, align 1
  %4 = alloca i8, align 1
  %5 = alloca i8, align 1
  %6 = alloca i8, align 1
  %7 = alloca i8, align 1
  %8 = alloca i8, align 1
  %9 = alloca i8, align 1
  %10 = alloca i8, align 1
  %11 = alloca i8, align 1
  %12 = alloca i8, align 1
  %13 = alloca i8, align 1
  %14 = alloca i8, align 1
  %15 = alloca i8, align 1
  %16 = alloca i8, align 1
  %17 = alloca i8, align 1
  %18 = alloca i8, align 1
  %19 = alloca i8, align 1
  %20 = alloca i8, align 1
  %21 = alloca i8, align 1
  %22 = alloca i8, align 1
  %23 = alloca i8, align 1
  %24 = alloca i8, align 1
  %25 = alloca i8, align 1
  %26 = alloca i8, align 1
  %27 = alloca i8, align 1
  %28 = alloca i8, align 1
  %29 = alloca i8, align 1
  %30 = alloca i8, align 1
  %31 = alloca i8, align 1
  %32 = alloca i8, align 1
  %33 = alloca i8, align 1
  %34 = alloca i8, align 1
  %35 = alloca i8, align 1
  %36 = alloca i32, align 4
  %37 = alloca i32, align 4
  %38 = alloca i32, align 4
  %39 = alloca i32, align 4
  %40 = alloca i32, align 4
  %41 = alloca i32, align 4
  %42 = alloca i32, align 4
  %43 = alloca i32, align 4
  %44 = alloca i32, align 4
  %45 = alloca i32, align 4
  %46 = alloca i32, align 4
  %47 = alloca i32, align 4
  %48 = alloca i32, align 4
  %49 = alloca i32, align 4
  %50 = alloca i32, align 4
  %51 = alloca i32, align 4
  %52 = alloca i32, align 4
  %53 = alloca i32, align 4
  store i8 %0, ptr %3, align 1, !tbaa !8
  br label %54

54:                                               ; preds = %1
  call void @llvm.lifetime.start.p0(i64 1, ptr %4) #7
  call void @llvm.lifetime.start.p0(i64 1, ptr %5) #7
  store i8 0, ptr %4, align 1, !tbaa !8
  %55 = load i8, ptr %3, align 1, !tbaa !8
  %56 = load i8, ptr %4, align 1, !tbaa !8
  %57 = call zeroext i8 @lean_uint8_dec_eq(i8 noundef zeroext %55, i8 noundef zeroext %56)
  store i8 %57, ptr %5, align 1, !tbaa !8
  %58 = load i8, ptr %5, align 1, !tbaa !8
  %59 = zext i8 %58 to i32
  %60 = icmp eq i32 %59, 0
  br i1 %60, label %61, label %213

61:                                               ; preds = %54
  call void @llvm.lifetime.start.p0(i64 1, ptr %6) #7
  call void @llvm.lifetime.start.p0(i64 1, ptr %7) #7
  store i8 1, ptr %6, align 1, !tbaa !8
  %62 = load i8, ptr %3, align 1, !tbaa !8
  %63 = load i8, ptr %6, align 1, !tbaa !8
  %64 = call zeroext i8 @lean_uint8_dec_eq(i8 noundef zeroext %62, i8 noundef zeroext %63)
  store i8 %64, ptr %7, align 1, !tbaa !8
  %65 = load i8, ptr %7, align 1, !tbaa !8
  %66 = zext i8 %65 to i32
  %67 = icmp eq i32 %66, 0
  br i1 %67, label %68, label %210

68:                                               ; preds = %61
  call void @llvm.lifetime.start.p0(i64 1, ptr %8) #7
  call void @llvm.lifetime.start.p0(i64 1, ptr %9) #7
  store i8 2, ptr %8, align 1, !tbaa !8
  %69 = load i8, ptr %3, align 1, !tbaa !8
  %70 = load i8, ptr %8, align 1, !tbaa !8
  %71 = call zeroext i8 @lean_uint8_dec_eq(i8 noundef zeroext %69, i8 noundef zeroext %70)
  store i8 %71, ptr %9, align 1, !tbaa !8
  %72 = load i8, ptr %9, align 1, !tbaa !8
  %73 = zext i8 %72 to i32
  %74 = icmp eq i32 %73, 0
  br i1 %74, label %75, label %207

75:                                               ; preds = %68
  call void @llvm.lifetime.start.p0(i64 1, ptr %10) #7
  call void @llvm.lifetime.start.p0(i64 1, ptr %11) #7
  store i8 3, ptr %10, align 1, !tbaa !8
  %76 = load i8, ptr %3, align 1, !tbaa !8
  %77 = load i8, ptr %10, align 1, !tbaa !8
  %78 = call zeroext i8 @lean_uint8_dec_eq(i8 noundef zeroext %76, i8 noundef zeroext %77)
  store i8 %78, ptr %11, align 1, !tbaa !8
  %79 = load i8, ptr %11, align 1, !tbaa !8
  %80 = zext i8 %79 to i32
  %81 = icmp eq i32 %80, 0
  br i1 %81, label %82, label %204

82:                                               ; preds = %75
  call void @llvm.lifetime.start.p0(i64 1, ptr %12) #7
  call void @llvm.lifetime.start.p0(i64 1, ptr %13) #7
  store i8 4, ptr %12, align 1, !tbaa !8
  %83 = load i8, ptr %3, align 1, !tbaa !8
  %84 = load i8, ptr %12, align 1, !tbaa !8
  %85 = call zeroext i8 @lean_uint8_dec_eq(i8 noundef zeroext %83, i8 noundef zeroext %84)
  store i8 %85, ptr %13, align 1, !tbaa !8
  %86 = load i8, ptr %13, align 1, !tbaa !8
  %87 = zext i8 %86 to i32
  %88 = icmp eq i32 %87, 0
  br i1 %88, label %89, label %201

89:                                               ; preds = %82
  call void @llvm.lifetime.start.p0(i64 1, ptr %14) #7
  call void @llvm.lifetime.start.p0(i64 1, ptr %15) #7
  store i8 5, ptr %14, align 1, !tbaa !8
  %90 = load i8, ptr %3, align 1, !tbaa !8
  %91 = load i8, ptr %14, align 1, !tbaa !8
  %92 = call zeroext i8 @lean_uint8_dec_eq(i8 noundef zeroext %90, i8 noundef zeroext %91)
  store i8 %92, ptr %15, align 1, !tbaa !8
  %93 = load i8, ptr %15, align 1, !tbaa !8
  %94 = zext i8 %93 to i32
  %95 = icmp eq i32 %94, 0
  br i1 %95, label %96, label %198

96:                                               ; preds = %89
  call void @llvm.lifetime.start.p0(i64 1, ptr %16) #7
  call void @llvm.lifetime.start.p0(i64 1, ptr %17) #7
  store i8 6, ptr %16, align 1, !tbaa !8
  %97 = load i8, ptr %3, align 1, !tbaa !8
  %98 = load i8, ptr %16, align 1, !tbaa !8
  %99 = call zeroext i8 @lean_uint8_dec_eq(i8 noundef zeroext %97, i8 noundef zeroext %98)
  store i8 %99, ptr %17, align 1, !tbaa !8
  %100 = load i8, ptr %17, align 1, !tbaa !8
  %101 = zext i8 %100 to i32
  %102 = icmp eq i32 %101, 0
  br i1 %102, label %103, label %195

103:                                              ; preds = %96
  call void @llvm.lifetime.start.p0(i64 1, ptr %18) #7
  call void @llvm.lifetime.start.p0(i64 1, ptr %19) #7
  store i8 7, ptr %18, align 1, !tbaa !8
  %104 = load i8, ptr %3, align 1, !tbaa !8
  %105 = load i8, ptr %18, align 1, !tbaa !8
  %106 = call zeroext i8 @lean_uint8_dec_eq(i8 noundef zeroext %104, i8 noundef zeroext %105)
  store i8 %106, ptr %19, align 1, !tbaa !8
  %107 = load i8, ptr %19, align 1, !tbaa !8
  %108 = zext i8 %107 to i32
  %109 = icmp eq i32 %108, 0
  br i1 %109, label %110, label %192

110:                                              ; preds = %103
  call void @llvm.lifetime.start.p0(i64 1, ptr %20) #7
  call void @llvm.lifetime.start.p0(i64 1, ptr %21) #7
  store i8 8, ptr %20, align 1, !tbaa !8
  %111 = load i8, ptr %3, align 1, !tbaa !8
  %112 = load i8, ptr %20, align 1, !tbaa !8
  %113 = call zeroext i8 @lean_uint8_dec_eq(i8 noundef zeroext %111, i8 noundef zeroext %112)
  store i8 %113, ptr %21, align 1, !tbaa !8
  %114 = load i8, ptr %21, align 1, !tbaa !8
  %115 = zext i8 %114 to i32
  %116 = icmp eq i32 %115, 0
  br i1 %116, label %117, label %189

117:                                              ; preds = %110
  call void @llvm.lifetime.start.p0(i64 1, ptr %22) #7
  call void @llvm.lifetime.start.p0(i64 1, ptr %23) #7
  store i8 9, ptr %22, align 1, !tbaa !8
  %118 = load i8, ptr %3, align 1, !tbaa !8
  %119 = load i8, ptr %22, align 1, !tbaa !8
  %120 = call zeroext i8 @lean_uint8_dec_eq(i8 noundef zeroext %118, i8 noundef zeroext %119)
  store i8 %120, ptr %23, align 1, !tbaa !8
  %121 = load i8, ptr %23, align 1, !tbaa !8
  %122 = zext i8 %121 to i32
  %123 = icmp eq i32 %122, 0
  br i1 %123, label %124, label %186

124:                                              ; preds = %117
  call void @llvm.lifetime.start.p0(i64 1, ptr %24) #7
  call void @llvm.lifetime.start.p0(i64 1, ptr %25) #7
  store i8 10, ptr %24, align 1, !tbaa !8
  %125 = load i8, ptr %3, align 1, !tbaa !8
  %126 = load i8, ptr %24, align 1, !tbaa !8
  %127 = call zeroext i8 @lean_uint8_dec_eq(i8 noundef zeroext %125, i8 noundef zeroext %126)
  store i8 %127, ptr %25, align 1, !tbaa !8
  %128 = load i8, ptr %25, align 1, !tbaa !8
  %129 = zext i8 %128 to i32
  %130 = icmp eq i32 %129, 0
  br i1 %130, label %131, label %183

131:                                              ; preds = %124
  call void @llvm.lifetime.start.p0(i64 1, ptr %26) #7
  call void @llvm.lifetime.start.p0(i64 1, ptr %27) #7
  store i8 11, ptr %26, align 1, !tbaa !8
  %132 = load i8, ptr %3, align 1, !tbaa !8
  %133 = load i8, ptr %26, align 1, !tbaa !8
  %134 = call zeroext i8 @lean_uint8_dec_eq(i8 noundef zeroext %132, i8 noundef zeroext %133)
  store i8 %134, ptr %27, align 1, !tbaa !8
  %135 = load i8, ptr %27, align 1, !tbaa !8
  %136 = zext i8 %135 to i32
  %137 = icmp eq i32 %136, 0
  br i1 %137, label %138, label %180

138:                                              ; preds = %131
  call void @llvm.lifetime.start.p0(i64 1, ptr %28) #7
  call void @llvm.lifetime.start.p0(i64 1, ptr %29) #7
  store i8 12, ptr %28, align 1, !tbaa !8
  %139 = load i8, ptr %3, align 1, !tbaa !8
  %140 = load i8, ptr %28, align 1, !tbaa !8
  %141 = call zeroext i8 @lean_uint8_dec_eq(i8 noundef zeroext %139, i8 noundef zeroext %140)
  store i8 %141, ptr %29, align 1, !tbaa !8
  %142 = load i8, ptr %29, align 1, !tbaa !8
  %143 = zext i8 %142 to i32
  %144 = icmp eq i32 %143, 0
  br i1 %144, label %145, label %177

145:                                              ; preds = %138
  call void @llvm.lifetime.start.p0(i64 1, ptr %30) #7
  call void @llvm.lifetime.start.p0(i64 1, ptr %31) #7
  store i8 13, ptr %30, align 1, !tbaa !8
  %146 = load i8, ptr %3, align 1, !tbaa !8
  %147 = load i8, ptr %30, align 1, !tbaa !8
  %148 = call zeroext i8 @lean_uint8_dec_eq(i8 noundef zeroext %146, i8 noundef zeroext %147)
  store i8 %148, ptr %31, align 1, !tbaa !8
  %149 = load i8, ptr %31, align 1, !tbaa !8
  %150 = zext i8 %149 to i32
  %151 = icmp eq i32 %150, 0
  br i1 %151, label %152, label %174

152:                                              ; preds = %145
  call void @llvm.lifetime.start.p0(i64 1, ptr %32) #7
  call void @llvm.lifetime.start.p0(i64 1, ptr %33) #7
  store i8 14, ptr %32, align 1, !tbaa !8
  %153 = load i8, ptr %3, align 1, !tbaa !8
  %154 = load i8, ptr %32, align 1, !tbaa !8
  %155 = call zeroext i8 @lean_uint8_dec_eq(i8 noundef zeroext %153, i8 noundef zeroext %154)
  store i8 %155, ptr %33, align 1, !tbaa !8
  %156 = load i8, ptr %33, align 1, !tbaa !8
  %157 = zext i8 %156 to i32
  %158 = icmp eq i32 %157, 0
  br i1 %158, label %159, label %171

159:                                              ; preds = %152
  call void @llvm.lifetime.start.p0(i64 1, ptr %34) #7
  call void @llvm.lifetime.start.p0(i64 1, ptr %35) #7
  store i8 15, ptr %34, align 1, !tbaa !8
  %160 = load i8, ptr %3, align 1, !tbaa !8
  %161 = load i8, ptr %34, align 1, !tbaa !8
  %162 = call zeroext i8 @lean_uint8_dec_eq(i8 noundef zeroext %160, i8 noundef zeroext %161)
  store i8 %162, ptr %35, align 1, !tbaa !8
  %163 = load i8, ptr %35, align 1, !tbaa !8
  %164 = zext i8 %163 to i32
  %165 = icmp eq i32 %164, 0
  br i1 %165, label %166, label %168

166:                                              ; preds = %159
  call void @llvm.lifetime.start.p0(i64 4, ptr %36) #7
  store i32 42, ptr %36, align 4, !tbaa !4
  %167 = load i32, ptr %36, align 4, !tbaa !4
  store i32 %167, ptr %2, align 4
  store i32 1, ptr %37, align 4
  call void @llvm.lifetime.end.p0(i64 4, ptr %36) #7
  br label %170

168:                                              ; preds = %159
  call void @llvm.lifetime.start.p0(i64 4, ptr %38) #7
  store i32 70, ptr %38, align 4, !tbaa !4
  %169 = load i32, ptr %38, align 4, !tbaa !4
  store i32 %169, ptr %2, align 4
  store i32 1, ptr %37, align 4
  call void @llvm.lifetime.end.p0(i64 4, ptr %38) #7
  br label %170

170:                                              ; preds = %168, %166
  call void @llvm.lifetime.end.p0(i64 1, ptr %35) #7
  call void @llvm.lifetime.end.p0(i64 1, ptr %34) #7
  br label %173

171:                                              ; preds = %152
  call void @llvm.lifetime.start.p0(i64 4, ptr %39) #7
  store i32 69, ptr %39, align 4, !tbaa !4
  %172 = load i32, ptr %39, align 4, !tbaa !4
  store i32 %172, ptr %2, align 4
  store i32 1, ptr %37, align 4
  call void @llvm.lifetime.end.p0(i64 4, ptr %39) #7
  br label %173

173:                                              ; preds = %171, %170
  call void @llvm.lifetime.end.p0(i64 1, ptr %33) #7
  call void @llvm.lifetime.end.p0(i64 1, ptr %32) #7
  br label %176

174:                                              ; preds = %145
  call void @llvm.lifetime.start.p0(i64 4, ptr %40) #7
  store i32 68, ptr %40, align 4, !tbaa !4
  %175 = load i32, ptr %40, align 4, !tbaa !4
  store i32 %175, ptr %2, align 4
  store i32 1, ptr %37, align 4
  call void @llvm.lifetime.end.p0(i64 4, ptr %40) #7
  br label %176

176:                                              ; preds = %174, %173
  call void @llvm.lifetime.end.p0(i64 1, ptr %31) #7
  call void @llvm.lifetime.end.p0(i64 1, ptr %30) #7
  br label %179

177:                                              ; preds = %138
  call void @llvm.lifetime.start.p0(i64 4, ptr %41) #7
  store i32 67, ptr %41, align 4, !tbaa !4
  %178 = load i32, ptr %41, align 4, !tbaa !4
  store i32 %178, ptr %2, align 4
  store i32 1, ptr %37, align 4
  call void @llvm.lifetime.end.p0(i64 4, ptr %41) #7
  br label %179

179:                                              ; preds = %177, %176
  call void @llvm.lifetime.end.p0(i64 1, ptr %29) #7
  call void @llvm.lifetime.end.p0(i64 1, ptr %28) #7
  br label %182

180:                                              ; preds = %131
  call void @llvm.lifetime.start.p0(i64 4, ptr %42) #7
  store i32 66, ptr %42, align 4, !tbaa !4
  %181 = load i32, ptr %42, align 4, !tbaa !4
  store i32 %181, ptr %2, align 4
  store i32 1, ptr %37, align 4
  call void @llvm.lifetime.end.p0(i64 4, ptr %42) #7
  br label %182

182:                                              ; preds = %180, %179
  call void @llvm.lifetime.end.p0(i64 1, ptr %27) #7
  call void @llvm.lifetime.end.p0(i64 1, ptr %26) #7
  br label %185

183:                                              ; preds = %124
  call void @llvm.lifetime.start.p0(i64 4, ptr %43) #7
  store i32 65, ptr %43, align 4, !tbaa !4
  %184 = load i32, ptr %43, align 4, !tbaa !4
  store i32 %184, ptr %2, align 4
  store i32 1, ptr %37, align 4
  call void @llvm.lifetime.end.p0(i64 4, ptr %43) #7
  br label %185

185:                                              ; preds = %183, %182
  call void @llvm.lifetime.end.p0(i64 1, ptr %25) #7
  call void @llvm.lifetime.end.p0(i64 1, ptr %24) #7
  br label %188

186:                                              ; preds = %117
  call void @llvm.lifetime.start.p0(i64 4, ptr %44) #7
  store i32 57, ptr %44, align 4, !tbaa !4
  %187 = load i32, ptr %44, align 4, !tbaa !4
  store i32 %187, ptr %2, align 4
  store i32 1, ptr %37, align 4
  call void @llvm.lifetime.end.p0(i64 4, ptr %44) #7
  br label %188

188:                                              ; preds = %186, %185
  call void @llvm.lifetime.end.p0(i64 1, ptr %23) #7
  call void @llvm.lifetime.end.p0(i64 1, ptr %22) #7
  br label %191

189:                                              ; preds = %110
  call void @llvm.lifetime.start.p0(i64 4, ptr %45) #7
  store i32 56, ptr %45, align 4, !tbaa !4
  %190 = load i32, ptr %45, align 4, !tbaa !4
  store i32 %190, ptr %2, align 4
  store i32 1, ptr %37, align 4
  call void @llvm.lifetime.end.p0(i64 4, ptr %45) #7
  br label %191

191:                                              ; preds = %189, %188
  call void @llvm.lifetime.end.p0(i64 1, ptr %21) #7
  call void @llvm.lifetime.end.p0(i64 1, ptr %20) #7
  br label %194

192:                                              ; preds = %103
  call void @llvm.lifetime.start.p0(i64 4, ptr %46) #7
  store i32 55, ptr %46, align 4, !tbaa !4
  %193 = load i32, ptr %46, align 4, !tbaa !4
  store i32 %193, ptr %2, align 4
  store i32 1, ptr %37, align 4
  call void @llvm.lifetime.end.p0(i64 4, ptr %46) #7
  br label %194

194:                                              ; preds = %192, %191
  call void @llvm.lifetime.end.p0(i64 1, ptr %19) #7
  call void @llvm.lifetime.end.p0(i64 1, ptr %18) #7
  br label %197

195:                                              ; preds = %96
  call void @llvm.lifetime.start.p0(i64 4, ptr %47) #7
  store i32 54, ptr %47, align 4, !tbaa !4
  %196 = load i32, ptr %47, align 4, !tbaa !4
  store i32 %196, ptr %2, align 4
  store i32 1, ptr %37, align 4
  call void @llvm.lifetime.end.p0(i64 4, ptr %47) #7
  br label %197

197:                                              ; preds = %195, %194
  call void @llvm.lifetime.end.p0(i64 1, ptr %17) #7
  call void @llvm.lifetime.end.p0(i64 1, ptr %16) #7
  br label %200

198:                                              ; preds = %89
  call void @llvm.lifetime.start.p0(i64 4, ptr %48) #7
  store i32 53, ptr %48, align 4, !tbaa !4
  %199 = load i32, ptr %48, align 4, !tbaa !4
  store i32 %199, ptr %2, align 4
  store i32 1, ptr %37, align 4
  call void @llvm.lifetime.end.p0(i64 4, ptr %48) #7
  br label %200

200:                                              ; preds = %198, %197
  call void @llvm.lifetime.end.p0(i64 1, ptr %15) #7
  call void @llvm.lifetime.end.p0(i64 1, ptr %14) #7
  br label %203

201:                                              ; preds = %82
  call void @llvm.lifetime.start.p0(i64 4, ptr %49) #7
  store i32 52, ptr %49, align 4, !tbaa !4
  %202 = load i32, ptr %49, align 4, !tbaa !4
  store i32 %202, ptr %2, align 4
  store i32 1, ptr %37, align 4
  call void @llvm.lifetime.end.p0(i64 4, ptr %49) #7
  br label %203

203:                                              ; preds = %201, %200
  call void @llvm.lifetime.end.p0(i64 1, ptr %13) #7
  call void @llvm.lifetime.end.p0(i64 1, ptr %12) #7
  br label %206

204:                                              ; preds = %75
  call void @llvm.lifetime.start.p0(i64 4, ptr %50) #7
  store i32 51, ptr %50, align 4, !tbaa !4
  %205 = load i32, ptr %50, align 4, !tbaa !4
  store i32 %205, ptr %2, align 4
  store i32 1, ptr %37, align 4
  call void @llvm.lifetime.end.p0(i64 4, ptr %50) #7
  br label %206

206:                                              ; preds = %204, %203
  call void @llvm.lifetime.end.p0(i64 1, ptr %11) #7
  call void @llvm.lifetime.end.p0(i64 1, ptr %10) #7
  br label %209

207:                                              ; preds = %68
  call void @llvm.lifetime.start.p0(i64 4, ptr %51) #7
  store i32 50, ptr %51, align 4, !tbaa !4
  %208 = load i32, ptr %51, align 4, !tbaa !4
  store i32 %208, ptr %2, align 4
  store i32 1, ptr %37, align 4
  call void @llvm.lifetime.end.p0(i64 4, ptr %51) #7
  br label %209

209:                                              ; preds = %207, %206
  call void @llvm.lifetime.end.p0(i64 1, ptr %9) #7
  call void @llvm.lifetime.end.p0(i64 1, ptr %8) #7
  br label %212

210:                                              ; preds = %61
  call void @llvm.lifetime.start.p0(i64 4, ptr %52) #7
  store i32 49, ptr %52, align 4, !tbaa !4
  %211 = load i32, ptr %52, align 4, !tbaa !4
  store i32 %211, ptr %2, align 4
  store i32 1, ptr %37, align 4
  call void @llvm.lifetime.end.p0(i64 4, ptr %52) #7
  br label %212

212:                                              ; preds = %210, %209
  call void @llvm.lifetime.end.p0(i64 1, ptr %7) #7
  call void @llvm.lifetime.end.p0(i64 1, ptr %6) #7
  br label %215

213:                                              ; preds = %54
  call void @llvm.lifetime.start.p0(i64 4, ptr %53) #7
  store i32 48, ptr %53, align 4, !tbaa !4
  %214 = load i32, ptr %53, align 4, !tbaa !4
  store i32 %214, ptr %2, align 4
  store i32 1, ptr %37, align 4
  call void @llvm.lifetime.end.p0(i64 4, ptr %53) #7
  br label %215

215:                                              ; preds = %213, %212
  call void @llvm.lifetime.end.p0(i64 1, ptr %5) #7
  call void @llvm.lifetime.end.p0(i64 1, ptr %4) #7
  %216 = load i32, ptr %2, align 4
  ret i32 %216
}

; Function Attrs: inlinehint nounwind uwtable
define internal zeroext i8 @lean_uint8_shift_right(i8 noundef zeroext %0, i8 noundef zeroext %1) #0 {
  %3 = alloca i8, align 1
  %4 = alloca i8, align 1
  store i8 %0, ptr %3, align 1, !tbaa !8
  store i8 %1, ptr %4, align 1, !tbaa !8
  %5 = load i8, ptr %3, align 1, !tbaa !8
  %6 = zext i8 %5 to i32
  %7 = load i8, ptr %4, align 1, !tbaa !8
  %8 = zext i8 %7 to i32
  %9 = srem i32 %8, 8
  %10 = ashr i32 %6, %9
  %11 = trunc i32 %10 to i8
  ret i8 %11
}

; Function Attrs: nounwind uwtable
define ptr @l_Lake_uriEscapeByte(i8 noundef zeroext %0, ptr noundef %1) #2 {
  %3 = alloca i8, align 1
  %4 = alloca ptr, align 8
  %5 = alloca i32, align 4
  %6 = alloca ptr, align 8
  %7 = alloca i8, align 1
  %8 = alloca i8, align 1
  %9 = alloca i32, align 4
  %10 = alloca ptr, align 8
  %11 = alloca i8, align 1
  %12 = alloca i8, align 1
  %13 = alloca i32, align 4
  %14 = alloca ptr, align 8
  store i8 %0, ptr %3, align 1, !tbaa !8
  store ptr %1, ptr %4, align 8, !tbaa !11
  br label %15

15:                                               ; preds = %2
  call void @llvm.lifetime.start.p0(i64 4, ptr %5) #7
  call void @llvm.lifetime.start.p0(i64 8, ptr %6) #7
  call void @llvm.lifetime.start.p0(i64 1, ptr %7) #7
  call void @llvm.lifetime.start.p0(i64 1, ptr %8) #7
  call void @llvm.lifetime.start.p0(i64 4, ptr %9) #7
  call void @llvm.lifetime.start.p0(i64 8, ptr %10) #7
  call void @llvm.lifetime.start.p0(i64 1, ptr %11) #7
  call void @llvm.lifetime.start.p0(i64 1, ptr %12) #7
  call void @llvm.lifetime.start.p0(i64 4, ptr %13) #7
  call void @llvm.lifetime.start.p0(i64 8, ptr %14) #7
  store i32 37, ptr %5, align 4, !tbaa !4
  %16 = load ptr, ptr %4, align 8, !tbaa !11
  %17 = load i32, ptr %5, align 4, !tbaa !4
  %18 = call ptr @lean_string_push(ptr noundef %16, i32 noundef %17)
  store ptr %18, ptr %6, align 8, !tbaa !11
  store i8 4, ptr %7, align 1, !tbaa !8
  %19 = load i8, ptr %3, align 1, !tbaa !8
  %20 = load i8, ptr %7, align 1, !tbaa !8
  %21 = call zeroext i8 @lean_uint8_shift_right(i8 noundef zeroext %19, i8 noundef zeroext %20)
  store i8 %21, ptr %8, align 1, !tbaa !8
  %22 = load i8, ptr %8, align 1, !tbaa !8
  %23 = call i32 @l_Lake_hexEncodeByte(i8 noundef zeroext %22)
  store i32 %23, ptr %9, align 4, !tbaa !4
  %24 = load ptr, ptr %6, align 8, !tbaa !11
  %25 = load i32, ptr %9, align 4, !tbaa !4
  %26 = call ptr @lean_string_push(ptr noundef %24, i32 noundef %25)
  store ptr %26, ptr %10, align 8, !tbaa !11
  store i8 15, ptr %11, align 1, !tbaa !8
  %27 = load i8, ptr %3, align 1, !tbaa !8
  %28 = load i8, ptr %11, align 1, !tbaa !8
  %29 = call zeroext i8 @lean_uint8_land(i8 noundef zeroext %27, i8 noundef zeroext %28)
  store i8 %29, ptr %12, align 1, !tbaa !8
  %30 = load i8, ptr %12, align 1, !tbaa !8
  %31 = call i32 @l_Lake_hexEncodeByte(i8 noundef zeroext %30)
  store i32 %31, ptr %13, align 4, !tbaa !4
  %32 = load ptr, ptr %10, align 8, !tbaa !11
  %33 = load i32, ptr %13, align 4, !tbaa !4
  %34 = call ptr @lean_string_push(ptr noundef %32, i32 noundef %33)
  store ptr %34, ptr %14, align 8, !tbaa !11
  %35 = load ptr, ptr %14, align 8, !tbaa !11
  call void @llvm.lifetime.end.p0(i64 8, ptr %14) #7
  call void @llvm.lifetime.end.p0(i64 4, ptr %13) #7
  call void @llvm.lifetime.end.p0(i64 1, ptr %12) #7
  call void @llvm.lifetime.end.p0(i64 1, ptr %11) #7
  call void @llvm.lifetime.end.p0(i64 8, ptr %10) #7
  call void @llvm.lifetime.end.p0(i64 4, ptr %9) #7
  call void @llvm.lifetime.end.p0(i64 1, ptr %8) #7
  call void @llvm.lifetime.end.p0(i64 1, ptr %7) #7
  call void @llvm.lifetime.end.p0(i64 8, ptr %6) #7
  call void @llvm.lifetime.end.p0(i64 4, ptr %5) #7
  ret ptr %35
}