; Function Attrs: nounwind uwtable
define ptr @l_Lake_uriEscapeByte(i8 noundef zeroext %0, ptr noundef %1) local_unnamed_addr #1 {
switch.lookup:
  %2 = tail call ptr @lean_string_push(ptr noundef %1, i32 noundef 37) #7
  %3 = lshr i8 %0, 4
  %4 = zext nneg i8 %3 to i64
  %switch.gep = getelementptr inbounds nuw [16 x i32], ptr @switch.table.l_Lake_uriEscapeByte.11, i64 0, i64 %4
  %switch.load = load i32, ptr %switch.gep, align 4
  %5 = tail call ptr @lean_string_push(ptr noundef %2, i32 noundef %switch.load) #7
  %6 = and i8 %0, 15
  %7 = zext nneg i8 %6 to i64
  %switch.gep31 = getelementptr inbounds nuw [16 x i32], ptr @switch.table.l_Lake_uriEscapeByte.11, i64 0, i64 %7
  %switch.load32 = load i32, ptr %switch.gep31, align 4
  %8 = tail call ptr @lean_string_push(ptr noundef %5, i32 noundef %switch.load32) #7
  ret ptr %8
}